target datalayout = "e-m:e-p270:32:32-p271:32:32-p272:64:64-i64:64-i128:128-f80:128-n8:16:32:64-S128"
target triple = "x86_64-pc-linux-gnu"

@__const.ucnv_detectUnicodeSignature_77.start = private unnamed_addr constant [5 x i8] c"\A5\A5\A5\A5\A5", align 1
@.str.1 = private unnamed_addr constant [9 x i8] c"UTF-16BE\00", align 1
@.str.2 = private unnamed_addr constant [9 x i8] c"UTF-32LE\00", align 1
@.str.3 = private unnamed_addr constant [9 x i8] c"UTF-16LE\00", align 1
@.str.4 = private unnamed_addr constant [6 x i8] c"UTF-8\00", align 1
@.str.5 = private unnamed_addr constant [9 x i8] c"UTF-32BE\00", align 1
@.str.6 = private unnamed_addr constant [5 x i8] c"SCSU\00", align 1
@.str.7 = private unnamed_addr constant [7 x i8] c"BOCU-1\00", align 1
@.str.8 = private unnamed_addr constant [6 x i8] c"UTF-7\00", align 1
@.str.9 = private unnamed_addr constant [11 x i8] c"UTF-EBCDIC\00", align 1

; Function Attrs: inlinehint mustprogress nounwind uwtable
define internal noundef signext i8 @_ZL9U_FAILURE10UErrorCode(i32 noundef %0) #2 {
  %2 = alloca i32, align 4
  store i32 %0, ptr %2, align 4, !tbaa !9
  %3 = load i32, ptr %2, align 4, !tbaa !9
  %4 = icmp sgt i32 %3, 0
  %5 = zext i1 %4 to i8
  ret i8 %5
}

; Function Attrs: mustprogress uwtable
define ptr @ucnv_detectUnicodeSignature_77(ptr noundef %0, i32 noundef %1, ptr noundef %2, ptr noundef %3) #0 {
  %5 = alloca ptr, align 8
  %6 = alloca ptr, align 8
  %7 = alloca i32, align 4
  %8 = alloca ptr, align 8
  %9 = alloca ptr, align 8
  %10 = alloca i32, align 4
  %11 = alloca [5 x i8], align 1
  %12 = alloca i32, align 4
  %13 = alloca i32, align 4
  store ptr %0, ptr %6, align 8, !tbaa !3
  store i32 %1, ptr %7, align 4, !tbaa !15
  store ptr %2, ptr %8, align 8, !tbaa !20
  store ptr %3, ptr %9, align 8, !tbaa !8
  call void @llvm.lifetime.start.p0(i64 4, ptr %10) #11
  call void @llvm.lifetime.start.p0(i64 5, ptr %11) #11
  call void @llvm.memcpy.p0.p0.i64(ptr align 1 %11, ptr align 1 @__const.ucnv_detectUnicodeSignature_77.start, i64 5, i1 false)
  call void @llvm.lifetime.start.p0(i64 4, ptr %12) #11
  store i32 0, ptr %12, align 4, !tbaa !15
  %14 = load ptr, ptr %9, align 8, !tbaa !8
  %15 = icmp eq ptr %14, null
  br i1 %15, label %21, label %16

16:                                               ; preds = %4
  %17 = load ptr, ptr %9, align 8, !tbaa !8
  %18 = load i32, ptr %17, align 4, !tbaa !9
  %19 = call noundef signext i8 @_ZL9U_FAILURE10UErrorCode(i32 noundef %18)
  %20 = icmp ne i8 %19, 0
  br i1 %20, label %21, label %22

21:                                               ; preds = %16, %4
  store ptr null, ptr %5, align 8
  store i32 1, ptr %13, align 4
  br label %253

22:                                               ; preds = %16
  %23 = load ptr, ptr %6, align 8, !tbaa !3
  %24 = icmp eq ptr %23, null
  br i1 %24, label %28, label %25

25:                                               ; preds = %22
  %26 = load i32, ptr %7, align 4, !tbaa !15
  %27 = icmp slt i32 %26, -1
  br i1 %27, label %28, label %30

28:                                               ; preds = %25, %22
  %29 = load ptr, ptr %9, align 8, !tbaa !8
  store i32 1, ptr %29, align 4, !tbaa !9
  store ptr null, ptr %5, align 8
  store i32 1, ptr %13, align 4
  br label %253

30:                                               ; preds = %25
  %31 = load ptr, ptr %8, align 8, !tbaa !20
  %32 = icmp eq ptr %31, null
  br i1 %32, label %33, label %34

33:                                               ; preds = %30
  store ptr %10, ptr %8, align 8, !tbaa !20
  br label %34

34:                                               ; preds = %33, %30
  %35 = load i32, ptr %7, align 4, !tbaa !15
  %36 = icmp eq i32 %35, -1
  br i1 %36, label %37, label %41

37:                                               ; preds = %34
  %38 = load ptr, ptr %6, align 8, !tbaa !3
  %39 = call i64 @strlen(ptr noundef %38) #13
  %40 = trunc i64 %39 to i32
  store i32 %40, ptr %7, align 4, !tbaa !15
  br label %41

41:                                               ; preds = %37, %34
  br label %42

42:                                               ; preds = %51, %41
  %43 = load i32, ptr %12, align 4, !tbaa !15
  %44 = load i32, ptr %7, align 4, !tbaa !15
  %45 = icmp slt i32 %43, %44
  br i1 %45, label %46, label %49

46:                                               ; preds = %42
  %47 = load i32, ptr %12, align 4, !tbaa !15
  %48 = icmp slt i32 %47, 5
  br label %49

49:                                               ; preds = %46, %42
  %50 = phi i1 [ false, %42 ], [ %48, %46 ]
  br i1 %50, label %51, label %62

51:                                               ; preds = %49
  %52 = load ptr, ptr %6, align 8, !tbaa !3
  %53 = load i32, ptr %12, align 4, !tbaa !15
  %54 = sext i32 %53 to i64
  %55 = getelementptr inbounds i8, ptr %52, i64 %54
  %56 = load i8, ptr %55, align 1, !tbaa !19
  %57 = load i32, ptr %12, align 4, !tbaa !15
  %58 = sext i32 %57 to i64
  %59 = getelementptr inbounds [5 x i8], ptr %11, i64 0, i64 %58
  store i8 %56, ptr %59, align 1, !tbaa !19
  %60 = load i32, ptr %12, align 4, !tbaa !15
  %61 = add nsw i32 %60, 1
  store i32 %61, ptr %12, align 4, !tbaa !15
  br label %42, !llvm.loop !135

62:                                               ; preds = %49
  %63 = getelementptr inbounds [5 x i8], ptr %11, i64 0, i64 0
  %64 = load i8, ptr %63, align 1, !tbaa !19
  %65 = sext i8 %64 to i32
  %66 = icmp eq i32 %65, -2
  br i1 %66, label %67, label %74

67:                                               ; preds = %62
  %68 = getelementptr inbounds [5 x i8], ptr %11, i64 0, i64 1
  %69 = load i8, ptr %68, align 1, !tbaa !19
  %70 = sext i8 %69 to i32
  %71 = icmp eq i32 %70, -1
  br i1 %71, label %72, label %74

72:                                               ; preds = %67
  %73 = load ptr, ptr %8, align 8, !tbaa !20
  store i32 2, ptr %73, align 4, !tbaa !15
  store ptr @.str.1, ptr %5, align 8
  store i32 1, ptr %13, align 4
  br label %253

74:                                               ; preds = %67, %62
  %75 = getelementptr inbounds [5 x i8], ptr %11, i64 0, i64 0
  %76 = load i8, ptr %75, align 1, !tbaa !19
  %77 = sext i8 %76 to i32
  %78 = icmp eq i32 %77, -1
  br i1 %78, label %79, label %98

79:                                               ; preds = %74
  %80 = getelementptr inbounds [5 x i8], ptr %11, i64 0, i64 1
  %81 = load i8, ptr %80, align 1, !tbaa !19
  %82 = sext i8 %81 to i32
  %83 = icmp eq i32 %82, -2
  br i1 %83, label %84, label %98

84:                                               ; preds = %79
  %85 = getelementptr inbounds [5 x i8], ptr %11, i64 0, i64 2
  %86 = load i8, ptr %85, align 1, !tbaa !19
  %87 = sext i8 %86 to i32
  %88 = icmp eq i32 %87, 0
  br i1 %88, label %89, label %96

89:                                               ; preds = %84
  %90 = getelementptr inbounds [5 x i8], ptr %11, i64 0, i64 3
  %91 = load i8, ptr %90, align 1, !tbaa !19
  %92 = sext i8 %91 to i32
  %93 = icmp eq i32 %92, 0
  br i1 %93, label %94, label %96

94:                                               ; preds = %89
  %95 = load ptr, ptr %8, align 8, !tbaa !20
  store i32 4, ptr %95, align 4, !tbaa !15
  store ptr @.str.2, ptr %5, align 8
  store i32 1, ptr %13, align 4
  br label %253

96:                                               ; preds = %89, %84
  %97 = load ptr, ptr %8, align 8, !tbaa !20
  store i32 2, ptr %97, align 4, !tbaa !15
  store ptr @.str.3, ptr %5, align 8
  store i32 1, ptr %13, align 4
  br label %253

98:                                               ; preds = %79, %74
  %99 = getelementptr inbounds [5 x i8], ptr %11, i64 0, i64 0
  %100 = load i8, ptr %99, align 1, !tbaa !19
  %101 = sext i8 %100 to i32
  %102 = icmp eq i32 %101, -17
  br i1 %102, label %103, label %115

103:                                              ; preds = %98
  %104 = getelementptr inbounds [5 x i8], ptr %11, i64 0, i64 1
  %105 = load i8, ptr %104, align 1, !tbaa !19
  %106 = sext i8 %105 to i32
  %107 = icmp eq i32 %106, -69
  br i1 %107, label %108, label %115

108:                                              ; preds = %103
  %109 = getelementptr inbounds [5 x i8], ptr %11, i64 0, i64 2
  %110 = load i8, ptr %109, align 1, !tbaa !19
  %111 = sext i8 %110 to i32
  %112 = icmp eq i32 %111, -65
  br i1 %112, label %113, label %115

113:                                              ; preds = %108
  %114 = load ptr, ptr %8, align 8, !tbaa !20
  store i32 3, ptr %114, align 4, !tbaa !15
  store ptr @.str.4, ptr %5, align 8
  store i32 1, ptr %13, align 4
  br label %253

115:                                              ; preds = %108, %103, %98
  %116 = getelementptr inbounds [5 x i8], ptr %11, i64 0, i64 0
  %117 = load i8, ptr %116, align 1, !tbaa !19
  %118 = sext i8 %117 to i32
  %119 = icmp eq i32 %118, 0
  br i1 %119, label %120, label %137

120:                                              ; preds = %115
  %121 = getelementptr inbounds [5 x i8], ptr %11, i64 0, i64 1
  %122 = load i8, ptr %121, align 1, !tbaa !19
  %123 = sext i8 %122 to i32
  %124 = icmp eq i32 %123, 0
  br i1 %124, label %125, label %137

125:                                              ; preds = %120
  %126 = getelementptr inbounds [5 x i8], ptr %11, i64 0, i64 2
  %127 = load i8, ptr %126, align 1, !tbaa !19
  %128 = sext i8 %127 to i32
  %129 = icmp eq i32 %128, -2
  br i1 %129, label %130, label %137

130:                                              ; preds = %125
  %131 = getelementptr inbounds [5 x i8], ptr %11, i64 0, i64 3
  %132 = load i8, ptr %131, align 1, !tbaa !19
  %133 = sext i8 %132 to i32
  %134 = icmp eq i32 %133, -1
  br i1 %134, label %135, label %137

135:                                              ; preds = %130
  %136 = load ptr, ptr %8, align 8, !tbaa !20
  store i32 4, ptr %136, align 4, !tbaa !15
  store ptr @.str.5, ptr %5, align 8
  store i32 1, ptr %13, align 4
  br label %253

137:                                              ; preds = %130, %125, %120, %115
  %138 = getelementptr inbounds [5 x i8], ptr %11, i64 0, i64 0
  %139 = load i8, ptr %138, align 1, !tbaa !19
  %140 = sext i8 %139 to i32
  %141 = icmp eq i32 %140, 14
  br i1 %141, label %142, label %154

142:                                              ; preds = %137
  %143 = getelementptr inbounds [5 x i8], ptr %11, i64 0, i64 1
  %144 = load i8, ptr %143, align 1, !tbaa !19
  %145 = sext i8 %144 to i32
  %146 = icmp eq i32 %145, -2
  br i1 %146, label %147, label %154

147:                                              ; preds = %142
  %148 = getelementptr inbounds [5 x i8], ptr %11, i64 0, i64 2
  %149 = load i8, ptr %148, align 1, !tbaa !19
  %150 = sext i8 %149 to i32
  %151 = icmp eq i32 %150, -1
  br i1 %151, label %152, label %154

152:                                              ; preds = %147
  %153 = load ptr, ptr %8, align 8, !tbaa !20
  store i32 3, ptr %153, align 4, !tbaa !15
  store ptr @.str.6, ptr %5, align 8
  store i32 1, ptr %13, align 4
  br label %253

154:                                              ; preds = %147, %142, %137
  %155 = getelementptr inbounds [5 x i8], ptr %11, i64 0, i64 0
  %156 = load i8, ptr %155, align 1, !tbaa !19
  %157 = sext i8 %156 to i32
  %158 = icmp eq i32 %157, -5
  br i1 %158, label %159, label %171

159:                                              ; preds = %154
  %160 = getelementptr inbounds [5 x i8], ptr %11, i64 0, i64 1
  %161 = load i8, ptr %160, align 1, !tbaa !19
  %162 = sext i8 %161 to i32
  %163 = icmp eq i32 %162, -18
  br i1 %163, label %164, label %171

164:                                              ; preds = %159
  %165 = getelementptr inbounds [5 x i8], ptr %11, i64 0, i64 2
  %166 = load i8, ptr %165, align 1, !tbaa !19
  %167 = sext i8 %166 to i32
  %168 = icmp eq i32 %167, 40
  br i1 %168, label %169, label %171

169:                                              ; preds = %164
  %170 = load ptr, ptr %8, align 8, !tbaa !20
  store i32 3, ptr %170, align 4, !tbaa !15
  store ptr @.str.7, ptr %5, align 8
  store i32 1, ptr %13, align 4
  br label %253

171:                                              ; preds = %164, %159, %154
  %172 = getelementptr inbounds [5 x i8], ptr %11, i64 0, i64 0
  %173 = load i8, ptr %172, align 1, !tbaa !19
  %174 = sext i8 %173 to i32
  %175 = icmp eq i32 %174, 43
  br i1 %175, label %176, label %222

176:                                              ; preds = %171
  %177 = getelementptr inbounds [5 x i8], ptr %11, i64 0, i64 1
  %178 = load i8, ptr %177, align 1, !tbaa !19
  %179 = sext i8 %178 to i32
  %180 = icmp eq i32 %179, 47
  br i1 %180, label %181, label %222

181:                                              ; preds = %176
  %182 = getelementptr inbounds [5 x i8], ptr %11, i64 0, i64 2
  %183 = load i8, ptr %182, align 1, !tbaa !19
  %184 = sext i8 %183 to i32
  %185 = icmp eq i32 %184, 118
  br i1 %185, label %186, label %222

186:                                              ; preds = %181
  %187 = getelementptr inbounds [5 x i8], ptr %11, i64 0, i64 3
  %188 = load i8, ptr %187, align 1, !tbaa !19
  %189 = sext i8 %188 to i32
  %190 = icmp eq i32 %189, 56
  br i1 %190, label %191, label %198

191:                                              ; preds = %186
  %192 = getelementptr inbounds [5 x i8], ptr %11, i64 0, i64 4
  %193 = load i8, ptr %192, align 1, !tbaa !19
  %194 = sext i8 %193 to i32
  %195 = icmp eq i32 %194, 45
  br i1 %195, label %196, label %198

196:                                              ; preds = %191
  %197 = load ptr, ptr %8, align 8, !tbaa !20
  store i32 5, ptr %197, align 4, !tbaa !15
  store ptr @.str.8, ptr %5, align 8
  store i32 1, ptr %13, align 4
  br label %253

198:                                              ; preds = %191, %186
  %199 = getelementptr inbounds [5 x i8], ptr %11, i64 0, i64 3
  %200 = load i8, ptr %199, align 1, !tbaa !19
  %201 = sext i8 %200 to i32
  %202 = icmp eq i32 %201, 56
  br i1 %202, label %218, label %203

203:                                              ; preds = %198
  %204 = getelementptr inbounds [5 x i8], ptr %11, i64 0, i64 3
  %205 = load i8, ptr %204, align 1, !tbaa !19
  %206 = sext i8 %205 to i32
  %207 = icmp eq i32 %206, 57
  br i1 %207, label %218, label %208

208:                                              ; preds = %203
  %209 = getelementptr inbounds [5 x i8], ptr %11, i64 0, i64 3
  %210 = load i8, ptr %209, align 1, !tbaa !19
  %211 = sext i8 %210 to i32
  %212 = icmp eq i32 %211, 43
  br i1 %212, label %218, label %213

213:                                              ; preds = %208
  %214 = getelementptr inbounds [5 x i8], ptr %11, i64 0, i64 3
  %215 = load i8, ptr %214, align 1, !tbaa !19
  %216 = sext i8 %215 to i32
  %217 = icmp eq i32 %216, 47
  br i1 %217, label %218, label %220

218:                                              ; preds = %213, %208, %203, %198
  %219 = load ptr, ptr %8, align 8, !tbaa !20
  store i32 4, ptr %219, align 4, !tbaa !15
  store ptr @.str.8, ptr %5, align 8
  store i32 1, ptr %13, align 4
  br label %253

220:                                              ; preds = %213
  br label %221

221:                                              ; preds = %220
  br label %245

222:                                              ; preds = %181, %176, %171
  %223 = getelementptr inbounds [5 x i8], ptr %11, i64 0, i64 0
  %224 = load i8, ptr %223, align 1, !tbaa !19
  %225 = sext i8 %224 to i32
  %226 = icmp eq i32 %225, -35
  br i1 %226, label %227, label %244

227:                                              ; preds = %222
  %228 = getelementptr inbounds [5 x i8], ptr %11, i64 0, i64 1
  %229 = load i8, ptr %228, align 1, !tbaa !19
  %230 = sext i8 %229 to i32
  %231 = icmp eq i32 %230, 115
  br i1 %231, label %232, label %244

232:                                              ; preds = %227
  %233 = getelementptr inbounds [5 x i8], ptr %11, i64 0, i64 2
  %234 = load i8, ptr %233, align 1, !tbaa !19
  %235 = sext i8 %234 to i32
  %236 = icmp eq i32 %235, 102
  br i1 %236, label %237, label %244

237:                                              ; preds = %232
  %238 = getelementptr inbounds [5 x i8], ptr %11, i64 0, i64 3
  %239 = load i8, ptr %238, align 1, !tbaa !19
  %240 = sext i8 %239 to i32
  %241 = icmp eq i32 %240, 115
  br i1 %241, label %242, label %244

242:                                              ; preds = %237
  %243 = load ptr, ptr %8, align 8, !tbaa !20
  store i32 4, ptr %243, align 4, !tbaa !15
  store ptr @.str.9, ptr %5, align 8
  store i32 1, ptr %13, align 4
  br label %253

244:                                              ; preds = %237, %232, %227, %222
  br label %245

245:                                              ; preds = %244, %221
  br label %246

246:                                              ; preds = %245
  br label %247

247:                                              ; preds = %246
  br label %248

248:                                              ; preds = %247
  br label %249

249:                                              ; preds = %248
  br label %250

250:                                              ; preds = %249
  br label %251

251:                                              ; preds = %250
  %252 = load ptr, ptr %8, align 8, !tbaa !20
  store i32 0, ptr %252, align 4, !tbaa !15
  store ptr null, ptr %5, align 8
  store i32 1, ptr %13, align 4
  br label %253

253:                                              ; preds = %251, %242, %218, %196, %169, %152, %135, %113, %96, %94, %72, %28, %21
  call void @llvm.lifetime.end.p0(i64 4, ptr %12) #11
  call void @llvm.lifetime.end.p0(i64 5, ptr %11) #11
  call void @llvm.lifetime.end.p0(i64 4, ptr %10) #11
  %254 = load ptr, ptr %5, align 8
  ret ptr %254
}