; Function Attrs: mustprogress nofree nounwind willreturn memory(argmem: readwrite) uwtable
define noundef ptr @ucnv_detectUnicodeSignature_77(ptr noundef readonly %0, i32 noundef %1, ptr noundef writeonly %2, ptr noundef %3) local_unnamed_addr #13 {
  %5 = alloca [5 x i8], align 1
  call void @llvm.lifetime.start.p0(i64 5, ptr nonnull %5)
  call void @llvm.memset.p0.i64(ptr noundef nonnull align 1 dereferenceable(5) %5, i8 -91, i64 5, i1 false)
  %6 = icmp eq ptr %3, null
  br i1 %6, label %.cont143, label %7

7:                                                ; preds = %4
  %8 = load i32, ptr %3, align 4, !tbaa !3
  %9 = icmp slt i32 %8, 1
  br i1 %9, label %10, label %.cont143

10:                                               ; preds = %7
  %11 = icmp eq ptr %0, null
  %12 = icmp slt i32 %1, -1
  %or.cond = or i1 %11, %12
  br i1 %or.cond, label %13, label %14

13:                                               ; preds = %10
  store i32 1, ptr %3, align 4, !tbaa !3
  br label %.cont143

14:                                               ; preds = %10
  %15 = icmp eq ptr %2, null
  %16 = icmp eq i32 %1, -1
  br i1 %16, label %17, label %20

17:                                               ; preds = %14
  %18 = tail call i64 @strlen(ptr noundef nonnull dereferenceable(1) %0) #18
  %19 = trunc i64 %18 to i32
  br label %20

20:                                               ; preds = %17, %14
  %.0112 = phi i32 [ %19, %17 ], [ %1, %14 ]
  %21 = icmp sgt i32 %.0112, 0
  br i1 %21, label %._crit_edge, label %.thread164

.thread164:                                       ; preds = %20
  %.2..2..sroa_idx175 = getelementptr inbounds nuw i8, ptr %5, i64 2
  %.2..2.169 = load i8, ptr %.2..2..sroa_idx175, align 1
  br label %40

._crit_edge:                                      ; preds = %20
  %22 = tail call i32 @llvm.umin.i32(i32 %.0112, i32 5)
  %23 = zext nneg i32 %22 to i64
  call void @llvm.memcpy.p0.p0.i64(ptr nonnull align 1 %5, ptr nonnull align 1 %0, i64 %23, i1 false), !tbaa !7
  %.0..0..pre = load i8, ptr %5, align 1, !tbaa !7
  %.1..1..sroa_idx = getelementptr inbounds nuw i8, ptr %5, i64 1
  %.1..1..pre = load i8, ptr %.1..1..sroa_idx, align 1
  %24 = icmp eq i8 %.0..0..pre, -2
  %25 = icmp eq i8 %.1..1..pre, -1
  %or.cond5 = select i1 %24, i1 %25, i1 false
  br i1 %or.cond5, label %26, label %27

26:                                               ; preds = %._crit_edge
  br i1 %15, label %.cont143, label %.else145

.else145:                                         ; preds = %26
  store i32 2, ptr %2, align 4, !tbaa !26
  br label %.cont143

27:                                               ; preds = %._crit_edge
  %28 = icmp eq i8 %.0..0..pre, -1
  %29 = icmp eq i8 %.1..1..pre, -2
  %or.cond9 = select i1 %28, i1 %29, i1 false
  br i1 %or.cond9, label %30, label %35

30:                                               ; preds = %27
  %.2..2..sroa_idx174 = getelementptr inbounds nuw i8, ptr %5, i64 2
  %.2..2.149 = load i8, ptr %.2..2..sroa_idx174, align 1, !tbaa !7
  %31 = icmp eq i8 %.2..2.149, 0
  %.3..3..sroa_idx176 = getelementptr inbounds nuw i8, ptr %5, i64 3
  %.3..3.151 = load i8, ptr %.3..3..sroa_idx176, align 1
  %32 = icmp eq i8 %.3..3.151, 0
  %or.cond13 = select i1 %31, i1 %32, i1 false
  br i1 %or.cond13, label %33, label %34

33:                                               ; preds = %30
  br i1 %15, label %.cont143, label %.else142

.else142:                                         ; preds = %33
  store i32 4, ptr %2, align 4, !tbaa !26
  br label %.cont143

34:                                               ; preds = %30
  br i1 %15, label %.cont143, label %.else139

.else139:                                         ; preds = %34
  store i32 2, ptr %2, align 4, !tbaa !26
  br label %.cont143

35:                                               ; preds = %27
  %36 = icmp eq i8 %.0..0..pre, -17
  %37 = icmp eq i8 %.1..1..pre, -69
  %or.cond17 = select i1 %36, i1 %37, i1 false
  %.2..2..sroa_idx = getelementptr inbounds nuw i8, ptr %5, i64 2
  %.2..2. = load i8, ptr %.2..2..sroa_idx, align 1
  %38 = icmp eq i8 %.2..2., -65
  %or.cond21 = select i1 %or.cond17, i1 %38, i1 false
  br i1 %or.cond21, label %39, label %40

39:                                               ; preds = %35
  br i1 %15, label %.cont143, label %.else136

.else136:                                         ; preds = %39
  store i32 3, ptr %2, align 4, !tbaa !26
  br label %.cont143

40:                                               ; preds = %.thread164, %35
  %.2.173 = phi i8 [ %.2..2.169, %.thread164 ], [ %.2..2., %35 ]
  %.0.158162172 = phi i8 [ -91, %.thread164 ], [ %.0..0..pre, %35 ]
  %.1.157163171 = phi i8 [ -91, %.thread164 ], [ %.1..1..pre, %35 ]
  %41 = phi i1 [ false, %.thread164 ], [ %29, %35 ]
  %42 = icmp eq i8 %.0.158162172, 0
  %43 = icmp eq i8 %.1.157163171, 0
  %or.cond25 = select i1 %42, i1 %43, i1 false
  %44 = icmp eq i8 %.2.173, -2
  %or.cond29 = select i1 %or.cond25, i1 %44, i1 false
  %.3..3..sroa_idx = getelementptr inbounds nuw i8, ptr %5, i64 3
  %.3..3. = load i8, ptr %.3..3..sroa_idx, align 1
  %45 = icmp eq i8 %.3..3., -1
  %or.cond33 = select i1 %or.cond29, i1 %45, i1 false
  br i1 %or.cond33, label %46, label %47

46:                                               ; preds = %40
  br i1 %15, label %.cont143, label %.else133

.else133:                                         ; preds = %46
  store i32 4, ptr %2, align 4, !tbaa !26
  br label %.cont143

47:                                               ; preds = %40
  %48 = icmp eq i8 %.0.158162172, 14
  %or.cond37 = select i1 %48, i1 %41, i1 false
  %49 = icmp eq i8 %.2.173, -1
  %or.cond41 = select i1 %or.cond37, i1 %49, i1 false
  br i1 %or.cond41, label %50, label %51

50:                                               ; preds = %47
  br i1 %15, label %.cont143, label %.else130

.else130:                                         ; preds = %50
  store i32 3, ptr %2, align 4, !tbaa !26
  br label %.cont143

51:                                               ; preds = %47
  %52 = icmp eq i8 %.0.158162172, -5
  %53 = icmp eq i8 %.1.157163171, -18
  %or.cond45 = select i1 %52, i1 %53, i1 false
  %54 = icmp eq i8 %.2.173, 40
  %or.cond49 = select i1 %or.cond45, i1 %54, i1 false
  br i1 %or.cond49, label %55, label %56

55:                                               ; preds = %51
  br i1 %15, label %.cont143, label %.else127

.else127:                                         ; preds = %55
  store i32 3, ptr %2, align 4, !tbaa !26
  br label %.cont143

56:                                               ; preds = %51
  %57 = icmp eq i8 %.0.158162172, 43
  %58 = icmp eq i8 %.1.157163171, 47
  %or.cond53 = select i1 %57, i1 %58, i1 false
  %59 = icmp eq i8 %.2.173, 118
  %or.cond57 = select i1 %or.cond53, i1 %59, i1 false
  br i1 %or.cond57, label %60, label %66

60:                                               ; preds = %56
  %61 = icmp eq i8 %.3..3., 56
  %.4..4..sroa_idx = getelementptr inbounds nuw i8, ptr %5, i64 4
  %.4..4. = load i8, ptr %.4..4..sroa_idx, align 1
  %62 = icmp eq i8 %.4..4., 45
  %or.cond61 = select i1 %61, i1 %62, i1 false
  br i1 %or.cond61, label %63, label %64

63:                                               ; preds = %60
  br i1 %15, label %.cont143, label %.else124

.else124:                                         ; preds = %63
  store i32 5, ptr %2, align 4, !tbaa !26
  br label %.cont143

64:                                               ; preds = %60
  switch i8 %.3..3., label %72 [
    i8 57, label %65
    i8 56, label %65
    i8 47, label %65
    i8 43, label %65
  ]

65:                                               ; preds = %64, %64, %64, %64
  br i1 %15, label %.cont143, label %.else121

.else121:                                         ; preds = %65
  store i32 4, ptr %2, align 4, !tbaa !26
  br label %.cont143

66:                                               ; preds = %56
  %67 = icmp eq i8 %.0.158162172, -35
  %68 = icmp eq i8 %.1.157163171, 115
  %or.cond77 = select i1 %67, i1 %68, i1 false
  %69 = icmp eq i8 %.2.173, 102
  %or.cond81 = select i1 %or.cond77, i1 %69, i1 false
  %70 = icmp eq i8 %.3..3., 115
  %or.cond85 = select i1 %or.cond81, i1 %70, i1 false
  br i1 %or.cond85, label %71, label %72

71:                                               ; preds = %66
  br i1 %15, label %.cont143, label %.else

.else:                                            ; preds = %71
  store i32 4, ptr %2, align 4, !tbaa !26
  br label %.cont143

72:                                               ; preds = %64, %66
  br i1 %15, label %.cont143, label %.else118

.else118:                                         ; preds = %72
  store i32 0, ptr %2, align 4, !tbaa !26
  br label %.cont143

.cont143:                                         ; preds = %.else118, %72, %.else, %71, %.else121, %65, %.else124, %63, %.else127, %55, %.else130, %50, %.else133, %46, %.else136, %39, %.else139, %34, %.else142, %33, %.else145, %26, %4, %7, %13
  %.0111 = phi ptr [ null, %13 ], [ null, %7 ], [ null, %4 ], [ @.str.1, %26 ], [ @.str.1, %.else145 ], [ @.str.2, %33 ], [ @.str.2, %.else142 ], [ @.str.3, %34 ], [ @.str.3, %.else139 ], [ @.str.4, %39 ], [ @.str.4, %.else136 ], [ @.str.5, %46 ], [ @.str.5, %.else133 ], [ @.str.6, %50 ], [ @.str.6, %.else130 ], [ @.str.7, %55 ], [ @.str.7, %.else127 ], [ @.str.8, %63 ], [ @.str.8, %.else124 ], [ @.str.8, %65 ], [ @.str.8, %.else121 ], [ @.str.9, %71 ], [ @.str.9, %.else ], [ null, %72 ], [ null, %.else118 ]
  call void @llvm.lifetime.end.p0(i64 5, ptr nonnull %5)
  ret ptr %.0111
}